target datalayout = "e-m:e-p270:32:32-p271:32:32-p272:64:64-i64:64-i128:128-f80:128-n8:16:32:64-S128"
target triple = "x86_64-pc-linux-gnu"

%struct.curl_mimepart = type { ptr, ptr, i32, i32, ptr, ptr, ptr, ptr, ptr, ptr, ptr, ptr, ptr, ptr, ptr, i64, %struct.mime_state, ptr, %struct.mime_encoder_state, i64 }
%struct.mime_state = type { i32, ptr, i64 }
%struct.mime_encoder_state = type { i64, i64, i64, [256 x i8] }

@.str = private unnamed_addr constant [20 x i8] c"multipart/form-data\00", align 1

; Function Attrs: nounwind uwtable
define dso_local i32 @curl_formget(ptr noundef %0, ptr noundef %1, ptr noundef %2) #0 {
  %4 = alloca ptr, align 8
  %5 = alloca ptr, align 8
  %6 = alloca ptr, align 8
  %7 = alloca i32, align 4
  %8 = alloca %struct.curl_mimepart, align 8
  %9 = alloca [8192 x i8], align 16
  %10 = alloca i64, align 8
  store ptr %0, ptr %4, align 8
  store ptr %1, ptr %5, align 8
  store ptr %2, ptr %6, align 8
  call void @Curl_mime_initpart(ptr noundef %8)
  %11 = load ptr, ptr %4, align 8
  %12 = call i32 @Curl_getformdata(ptr noundef null, ptr noundef %8, ptr noundef %11, ptr noundef null)
  store i32 %12, ptr %7, align 4
  %13 = load i32, ptr %7, align 4
  %14 = icmp ne i32 %13, 0
  br i1 %14, label %17, label %15

15:                                               ; preds = %3
  %16 = call i32 @Curl_mime_prepare_headers(ptr noundef null, ptr noundef %8, ptr noundef @.str, ptr noundef null, i32 noundef 1)
  store i32 %16, ptr %7, align 4
  br label %17

17:                                               ; preds = %15, %3
  br label %18

18:                                               ; preds = %44, %17
  %19 = load i32, ptr %7, align 4
  %20 = icmp ne i32 %19, 0
  %21 = xor i1 %20, true
  br i1 %21, label %22, label %45

22:                                               ; preds = %18
  %23 = getelementptr inbounds [8192 x i8], ptr %9, i64 0, i64 0
  %24 = call i64 @Curl_mime_read(ptr noundef %23, i64 noundef 1, i64 noundef 8192, ptr noundef %8)
  store i64 %24, ptr %10, align 8
  %25 = load i64, ptr %10, align 8
  %26 = icmp ne i64 %25, 0
  br i1 %26, label %28, label %27

27:                                               ; preds = %22
  br label %45

28:                                               ; preds = %22
  %29 = load i64, ptr %10, align 8
  %30 = icmp ugt i64 %29, 8192
  br i1 %30, label %39, label %31

31:                                               ; preds = %28
  %32 = load ptr, ptr %6, align 8
  %33 = load ptr, ptr %5, align 8
  %34 = getelementptr inbounds [8192 x i8], ptr %9, i64 0, i64 0
  %35 = load i64, ptr %10, align 8
  %36 = call i64 %32(ptr noundef %33, ptr noundef %34, i64 noundef %35)
  %37 = load i64, ptr %10, align 8
  %38 = icmp ne i64 %36, %37
  br i1 %38, label %39, label %44

39:                                               ; preds = %31, %28
  store i32 26, ptr %7, align 4
  %40 = load i64, ptr %10, align 8
  %41 = icmp eq i64 %40, 268435456
  br i1 %41, label %42, label %43

42:                                               ; preds = %39
  store i32 42, ptr %7, align 4
  br label %43

43:                                               ; preds = %42, %39
  br label %44

44:                                               ; preds = %43, %31
  br label %18, !llvm.loop !12

45:                                               ; preds = %27, %18
  call void @Curl_mime_cleanpart(ptr noundef %8)
  %46 = load i32, ptr %7, align 4
  ret i32 %46
}