; Function Attrs: nounwind uwtable
define dso_local i32 @curl_formget(ptr noundef %0, ptr noundef %1, ptr noundef readonly captures(none) %2) local_unnamed_addr #0 {
  %4 = alloca %struct.curl_mimepart, align 8
  %5 = alloca [8192 x i8], align 16
  call void @Curl_mime_initpart(ptr noundef nonnull %4) #6
  %6 = call i32 @Curl_getformdata(ptr noundef null, ptr noundef nonnull %4, ptr noundef %0, ptr noundef null)
  %.not = icmp eq i32 %6, 0
  br i1 %.not, label %7, label %._crit_edge

7:                                                ; preds = %3
  %8 = call i32 @Curl_mime_prepare_headers(ptr noundef null, ptr noundef nonnull %4, ptr noundef nonnull @.str, ptr noundef null, i32 noundef 1) #6
  %.not1215 = icmp eq i32 %8, 0
  br i1 %.not1215, label %.lr.ph, label %._crit_edge

.lr.ph:                                           ; preds = %7, %12
  %9 = call i64 @Curl_mime_read(ptr noundef nonnull %5, i64 noundef 1, i64 noundef 8192, ptr noundef nonnull %4) #6
  %.not13 = icmp eq i64 %9, 0
  br i1 %.not13, label %._crit_edge, label %10

10:                                               ; preds = %.lr.ph
  %11 = icmp ugt i64 %9, 8192
  br i1 %11, label %.thread21, label %12

12:                                               ; preds = %10
  %13 = call i64 %2(ptr noundef %1, ptr noundef nonnull %5, i64 noundef %9) #6
  %.not14 = icmp eq i64 %13, %9
  br i1 %.not14, label %.lr.ph, label %.thread21, !llvm.loop !12

.thread21:                                        ; preds = %10, %12
  %14 = icmp eq i64 %9, 268435456
  %spec.store.select = select i1 %14, i32 42, i32 26
  br label %._crit_edge

._crit_edge:                                      ; preds = %.lr.ph, %3, %.thread21, %7
  %.1.lcssa = phi i32 [ %8, %7 ], [ %spec.store.select, %.thread21 ], [ %6, %3 ], [ 0, %.lr.ph ]
  call void @Curl_mime_cleanpart(ptr noundef nonnull %4) #6
  ret i32 %.1.lcssa
}